target datalayout = "e-m:e-p270:32:32-p271:32:32-p272:64:64-i64:64-i128:128-f80:128-n8:16:32:64-S128"
target triple = "x86_64-pc-linux-gnu"

@.str.144 = private unnamed_addr constant [38 x i8] c"Unknown kind \22%s\22 passed to setDflt()\00", align 1

; Function Attrs: nounwind uwtable
define internal i32 @setDfltAttr(ptr noundef %0, ptr noundef %1, ptr noundef %2, ptr noundef %3) #0 {
  %5 = alloca i32, align 4
  %6 = alloca ptr, align 8
  %7 = alloca ptr, align 8
  %8 = alloca ptr, align 8
  %9 = alloca ptr, align 8
  %10 = alloca i32, align 4
  %11 = alloca i32, align 4
  store ptr %0, ptr %6, align 8, !tbaa !92
  store ptr %1, ptr %7, align 8, !tbaa !7
  store ptr %2, ptr %8, align 8, !tbaa !7
  store ptr %3, ptr %9, align 8, !tbaa !7
  call void @llvm.lifetime.start.p0(i64 4, ptr %10) #16
  %12 = load ptr, ptr %7, align 8, !tbaa !7
  %13 = load i8, ptr %12, align 1, !tbaa !97
  %14 = sext i8 %13 to i32
  switch i32 %14, label %18 [
    i32 71, label %15
    i32 69, label %16
    i32 78, label %17
  ]

15:                                               ; preds = %4
  store i32 0, ptr %10, align 4, !tbaa !26
  br label %20

16:                                               ; preds = %4
  store i32 2, ptr %10, align 4, !tbaa !26
  br label %20

17:                                               ; preds = %4
  store i32 1, ptr %10, align 4, !tbaa !26
  br label %20

18:                                               ; preds = %4
  %19 = load ptr, ptr %7, align 8, !tbaa !7
  call void (i32, ptr, ...) @error(i32 noundef 1, ptr noundef @.str.144, ptr noundef %19)
  store i32 1, ptr %5, align 4
  store i32 1, ptr %11, align 4
  br label %26

20:                                               ; preds = %17, %16, %15
  %21 = load ptr, ptr %6, align 8, !tbaa !92
  %22 = load i32, ptr %10, align 4, !tbaa !26
  %23 = load ptr, ptr %8, align 8, !tbaa !7
  %24 = load ptr, ptr %9, align 8, !tbaa !7
  %25 = call ptr @agattr(ptr noundef %21, i32 noundef %22, ptr noundef %23, ptr noundef %24)
  store i32 0, ptr %5, align 4
  store i32 1, ptr %11, align 4
  br label %26

26:                                               ; preds = %20, %18
  call void @llvm.lifetime.end.p0(i64 4, ptr %10) #16
  %27 = load i32, ptr %5, align 4
  ret i32 %27
}