; Function Attrs: nounwind uwtable
define internal fastcc range(i32 0, 2) i32 @setDfltAttr(ptr noundef nonnull %0, ptr noundef nonnull %1, ptr noundef nonnull %2, ptr noundef nonnull %3) unnamed_addr #0 {
  %5 = load i8, ptr %1, align 1, !tbaa !65
  switch i8 %5, label %8 [
    i8 71, label %9
    i8 69, label %6
    i8 78, label %7
  ]

6:                                                ; preds = %4
  br label %9

7:                                                ; preds = %4
  br label %9

8:                                                ; preds = %4
  tail call void (i32, ptr, ...) @error(i32 noundef 1, ptr noundef nonnull @.str.144, ptr noundef nonnull %1) #25
  br label %11

9:                                                ; preds = %4, %7, %6
  %.0 = phi i32 [ 1, %7 ], [ 2, %6 ], [ 0, %4 ]
  %10 = tail call ptr @agattr(ptr noundef nonnull %0, i32 noundef %.0, ptr noundef nonnull %2, ptr noundef nonnull %3) #25
  br label %11

11:                                               ; preds = %9, %8
  %.06 = phi i32 [ 1, %8 ], [ 0, %9 ]
  ret i32 %.06
}